(dp1
S'N_MLAs'
p2
I16
sS'clf_params'
p3
(dp4
S'presort'
p5
S'auto'
p6
sS'loss'
p7
cnumpy.core.multiarray
scalar
p8
(cnumpy
dtype
p9
(S'S5'
I0
I1
tRp10
(I3
S'|'
NNNI5
I1
I0
tbS'huber'
tRp11
sS'verbose'
p12
I0
sS'max_leaf_nodes'
p13
NsS'learning_rate'
p14
g8
(g9
(S'f8'
I0
I1
tRp15
(I3
S'<'
NNNI-1
I-1
I0
tbS'\xffz7\xbbW\x82\x96?'
tRp16
sS'warm_start'
p17
I00
sS'min_samples_leaf'
p18
I94
sS'n_estimators'
p19
I11
sS'subsample'
p20
F0.76326006614820607
sS'init'
p21
NsS'min_weight_fraction_leaf'
p22
F0
sS'random_state'
p23
NsS'alpha'
p24
F0.90000000000000002
sS'max_features'
p25
F0.58195788427559536
sS'min_samples_split'
p26
I2
sS'max_depth'
p27
I67
ssS'score'
p28
g8
(g15
S'\x96\xe8\x7f\xe6_Q\x99\xbf'
tRp29
sS'config'
p30
(dp31
S'base_estimator'
p32
S'sklearn.tree.DecisionTreeRegressor'
p33
sS'n_jobs'
p34
I6
sS'verbose'
p35
I00
sS'trainDataPath'
p36
S'/Users/hoyleb/Documents/python/modules/photoz-wg/simulations/data/IPRING.4096.CosmosXDES._409_500_.txt.Buzzard.sims.fits.clean.fits'
p37
sS'small_iters_with_low_n_estimators'
p38
I4
sS'outPutFileBase'
p39
S'/Users/hoyleb/Documents/python/modules/photoz-wg/simulations/data/outxv20.p'
p40
sS'valid_weights'
p41
NsS'validDataPath'
p42
NsS'machineLearningArchitecture'
p43
(lp44
S'sklearn.ensemble.RandomForestRegressor'
p45
aS'sklearn.ensemble.AdaBoostRegressor'
p46
aS'sklearn.neighbors.KNeighborsRegressor'
p47
aS'sklearn.ensemble.GradientBoostingRegressor'
p48
asS'features'
p49
(dp50
S'input'
p51
(lp52
S'MAG_AUTO_G'
p53
aS'MAG_AUTO_R'
p54
aS'MAG_AUTO_I'
p55
aS'MAG_AUTO_Z'
p56
aS'MAG_AUTO_G-MAG_AUTO_R'
p57
aS'MAG_AUTO_G-MAG_AUTO_I'
p58
aS'MAG_AUTO_G-MAG_AUTO_Z'
p59
aS'MAG_AUTO_R-MAG_AUTO_I'
p60
aS'MAG_AUTO_R-MAG_AUTO_Z'
p61
aS'MAG_AUTO_I-MAG_AUTO_Z'
p62
asS'output'
p63
S'Z'
ssS'iterations'
p64
I150
sS'numberCrossValidation'
p65
I20
sS'maximum_NMLAs'
p66
I150
sS'train_weights'
p67
NsS'ID'
p68
S'ID'
p69
sS'score_metric'
p70
S'lib.Deltaz_sigma_68_sigma_95'
p71
ssS'features'
p72
g50
s.